target datalayout = "e-m:e-p270:32:32-p271:32:32-p272:64:64-i64:64-i128:128-f80:128-n8:16:32:64-S128"
target triple = "x86_64-pc-linux-gnu"

%"class.icu_77::Normalizer" = type <{ %"class.icu_77::UObject", ptr, ptr, i32, i32, ptr, i32, i32, %"class.icu_77::UnicodeString", i32, [4 x i8] }>
%"class.icu_77::UObject" = type { ptr }
%"class.icu_77::UnicodeString" = type { %"class.icu_77::Replaceable", %"union.icu_77::UnicodeString::StackBufferOrFields" }
%"class.icu_77::Replaceable" = type { %"class.icu_77::UObject" }
%"union.icu_77::UnicodeString::StackBufferOrFields" = type { %struct.anon.0, [32 x i8] }
%struct.anon.0 = type { i16, i32, i32, ptr }

; Function Attrs: mustprogress uwtable
define void @_ZN6icu_7710Normalizer7getTextERNS_13UnicodeStringE(ptr noundef nonnull align 8 dereferenceable(116) %0, ptr noundef nonnull align 8 dereferenceable(64) %1) #1 align 2 {
  %3 = alloca ptr, align 8
  %4 = alloca ptr, align 8
  store ptr %0, ptr %3, align 8, !tbaa !3
  store ptr %1, ptr %4, align 8, !tbaa !8
  %5 = load ptr, ptr %3, align 8
  %6 = getelementptr inbounds nuw %"class.icu_77::Normalizer", ptr %5, i32 0, i32 5
  %7 = load ptr, ptr %6, align 8, !tbaa !26
  %8 = load ptr, ptr %4, align 8, !tbaa !8
  %9 = load ptr, ptr %7, align 8, !tbaa !12
  %10 = getelementptr inbounds ptr, ptr %9, i64 26
  %11 = load ptr, ptr %10, align 8
  call void %11(ptr noundef nonnull align 8 dereferenceable(24) %7, ptr noundef nonnull align 8 dereferenceable(64) %8)
  ret void
}