; Function Attrs: mustprogress uwtable
define void @_ZN6icu_7710Normalizer7getTextERNS_13UnicodeStringE(ptr noundef nonnull readonly align 8 captures(none) dereferenceable(116) %0, ptr noundef nonnull align 8 dereferenceable(64) %1) local_unnamed_addr #1 align 2 {
  %3 = getelementptr inbounds nuw i8, ptr %0, i64 32
  %4 = load ptr, ptr %3, align 8, !tbaa !19
  %5 = load ptr, ptr %4, align 8, !tbaa !3
  %6 = getelementptr inbounds nuw i8, ptr %5, i64 208
  %7 = load ptr, ptr %6, align 8
  tail call void %7(ptr noundef nonnull align 8 dereferenceable(24) %4, ptr noundef nonnull align 8 dereferenceable(64) %1)
  ret void
}